target datalayout = "e-m:e-p270:32:32-p271:32:32-p272:64:64-i64:64-i128:128-f80:128-n8:16:32:64-S128"
target triple = "x86_64-pc-linux-gnu"

%"class.std::basic_ostream" = type { ptr, %"class.std::basic_ios" }
%"class.std::basic_ios" = type { %"class.std::ios_base", ptr, i8, i8, ptr, ptr, ptr, ptr }
%"class.std::ios_base" = type { ptr, i64, i64, i32, i32, i32, ptr, %"struct.std::ios_base::_Words", [8 x %"struct.std::ios_base::_Words"], i32, ptr, %"class.std::locale" }
%"struct.std::ios_base::_Words" = type { ptr, i64 }
%"class.std::locale" = type { ptr }
%"class.arrow::util::ArrowLog" = type <{ %"class.arrow::util::ArrowLogBase", ptr, i8, [7 x i8] }>
%"class.arrow::util::ArrowLogBase" = type { ptr }
%"class.arrow::util::CerrLog" = type <{ ptr, i32, i8, [3 x i8] }>

@_ZN5arrow4util8ArrowLog19severity_threshold_E = global i32 0, align 4
@_ZTVN5arrow4util8ArrowLogE = unnamed_addr constant { [6 x ptr] } { [6 x ptr] [ptr null, ptr @_ZTIN5arrow4util8ArrowLogE, ptr @_ZN5arrow4util8ArrowLogD1Ev, ptr @_ZN5arrow4util8ArrowLogD0Ev, ptr @_ZNK5arrow4util8ArrowLog9IsEnabledEv, ptr @_ZN5arrow4util8ArrowLog6StreamEv] }, align 8
@.str = private unnamed_addr constant [2 x i8] c":\00", align 1
@.str.2 = private unnamed_addr constant [3 x i8] c": \00", align 1
@_ZTVN5arrow4util7CerrLogE = linkonce_odr unnamed_addr constant { [4 x ptr] } { [4 x ptr] [ptr null, ptr @_ZTIN5arrow4util7CerrLogE, ptr @_ZN5arrow4util7CerrLogD2Ev, ptr @_ZN5arrow4util7CerrLogD0Ev] }, comdat, align 8
@_ZSt4cerr = external global %"class.std::basic_ostream", align 8

; Function Attrs: inlinehint mustprogress nounwind uwtable
define linkonce_odr noundef i32 @_ZStorSt12_Ios_IostateS_(i32 noundef %0, i32 noundef %1) #8 comdat {
  %3 = alloca i32, align 4
  %4 = alloca i32, align 4
  store i32 %0, ptr %3, align 4, !tbaa !98
  store i32 %1, ptr %4, align 4, !tbaa !98
  %5 = load i32, ptr %3, align 4, !tbaa !98
  %6 = load i32, ptr %4, align 4, !tbaa !98
  %7 = or i32 %5, %6
  ret i32 %7
}

; Function Attrs: mustprogress nounwind uwtable
define available_externally noundef i32 @_ZNKSt9basic_iosIcSt11char_traitsIcEE7rdstateEv(ptr noundef nonnull align 8 dereferenceable(264) %0) #4 align 2 {
  %2 = alloca ptr, align 8
  store ptr %0, ptr %2, align 8, !tbaa !44
  %3 = load ptr, ptr %2, align 8
  %4 = getelementptr inbounds nuw %"class.std::ios_base", ptr %3, i32 0, i32 5
  %5 = load i32, ptr %4, align 8, !tbaa !99
  ret i32 %5
}

; Function Attrs: mustprogress nounwind uwtable
define linkonce_odr noundef i64 @_ZNSt11char_traitsIcE6lengthEPKc(ptr noundef %0) #4 comdat align 2 {
  %2 = alloca ptr, align 8
  store ptr %0, ptr %2, align 8, !tbaa !17
  %3 = load ptr, ptr %2, align 8, !tbaa !17
  %4 = call i64 @strlen(ptr noundef %3) #3
  ret i64 %4
}

; Function Attrs: mustprogress uwtable
define available_externally void @_ZNSt9basic_iosIcSt11char_traitsIcEE8setstateESt12_Ios_Iostate(ptr noundef nonnull align 8 dereferenceable(264) %0, i32 noundef %1) #5 align 2 {
  %3 = alloca ptr, align 8
  %4 = alloca i32, align 4
  store ptr %0, ptr %3, align 8, !tbaa !44
  store i32 %1, ptr %4, align 4, !tbaa !98
  %5 = load ptr, ptr %3, align 8
  %6 = call noundef i32 @_ZNKSt9basic_iosIcSt11char_traitsIcEE7rdstateEv(ptr noundef nonnull align 8 dereferenceable(264) %5)
  %7 = load i32, ptr %4, align 4, !tbaa !98
  %8 = call noundef i32 @_ZStorSt12_Ios_IostateS_(i32 noundef %6, i32 noundef %7)
  call void @_ZNSt9basic_iosIcSt11char_traitsIcEE5clearESt12_Ios_Iostate(ptr noundef nonnull align 8 dereferenceable(264) %5, i32 noundef %8)
  ret void
}

; Function Attrs: inlinehint mustprogress uwtable
define available_externally noundef nonnull align 8 dereferenceable(8) ptr @_ZStlsISt11char_traitsIcEERSt13basic_ostreamIcT_ES5_PKc(ptr noundef nonnull align 8 dereferenceable(8) %0, ptr noundef %1) #11 {
  %3 = alloca ptr, align 8
  %4 = alloca ptr, align 8
  store ptr %0, ptr %3, align 8, !tbaa !41
  store ptr %1, ptr %4, align 8, !tbaa !17
  %5 = load ptr, ptr %4, align 8, !tbaa !17
  %6 = icmp ne ptr %5, null
  br i1 %6, label %13, label %7

7:                                                ; preds = %2
  %8 = load ptr, ptr %3, align 8, !tbaa !41
  %9 = load ptr, ptr %8, align 8, !tbaa !21
  %10 = getelementptr i8, ptr %9, i64 -24
  %11 = load i64, ptr %10, align 8
  %12 = getelementptr inbounds i8, ptr %8, i64 %11
  call void @_ZNSt9basic_iosIcSt11char_traitsIcEE8setstateESt12_Ios_Iostate(ptr noundef nonnull align 8 dereferenceable(264) %12, i32 noundef 1)
  br label %19

13:                                               ; preds = %2
  %14 = load ptr, ptr %3, align 8, !tbaa !41
  %15 = load ptr, ptr %4, align 8, !tbaa !17
  %16 = load ptr, ptr %4, align 8, !tbaa !17
  %17 = call noundef i64 @_ZNSt11char_traitsIcE6lengthEPKc(ptr noundef %16)
  %18 = call noundef nonnull align 8 dereferenceable(8) ptr @_ZSt16__ostream_insertIcSt11char_traitsIcEERSt13basic_ostreamIT_T0_ES6_PKS3_l(ptr noundef nonnull align 8 dereferenceable(8) %14, ptr noundef %15, i64 noundef %17)
  br label %19

19:                                               ; preds = %13, %7
  %20 = load ptr, ptr %3, align 8, !tbaa !41
  ret ptr %20
}

; Function Attrs: mustprogress nounwind uwtable
define linkonce_odr void @_ZN5arrow4util12ArrowLogBaseD2Ev(ptr noundef nonnull align 8 dereferenceable(8) %0) unnamed_addr #4 comdat align 2 {
  %2 = alloca ptr, align 8
  store ptr %0, ptr %2, align 8, !tbaa !30
  ret void
}

; Function Attrs: mustprogress uwtable
define linkonce_odr noundef nonnull align 8 dereferenceable(13) ptr @_ZN5arrow4util7CerrLoglsIA3_cEERS1_RKT_(ptr noundef nonnull align 8 dereferenceable(13) %0, ptr noundef nonnull align 1 dereferenceable(3) %1) #5 comdat align 2 {
  %3 = alloca ptr, align 8
  %4 = alloca ptr, align 8
  store ptr %0, ptr %3, align 8, !tbaa !28
  store ptr %1, ptr %4, align 8, !tbaa !17
  %5 = load ptr, ptr %3, align 8
  %6 = getelementptr inbounds nuw %"class.arrow::util::CerrLog", ptr %5, i32 0, i32 1
  %7 = load i32, ptr %6, align 8, !tbaa !32
  %8 = icmp ne i32 %7, -1
  br i1 %8, label %9, label %14

9:                                                ; preds = %2
  %10 = getelementptr inbounds nuw %"class.arrow::util::CerrLog", ptr %5, i32 0, i32 2
  store i8 1, ptr %10, align 4, !tbaa !34
  %11 = load ptr, ptr %4, align 8, !tbaa !17
  %12 = getelementptr inbounds [3 x i8], ptr %11, i64 0, i64 0
  %13 = call noundef nonnull align 8 dereferenceable(8) ptr @_ZStlsISt11char_traitsIcEERSt13basic_ostreamIcT_ES5_PKc(ptr noundef nonnull align 8 dereferenceable(8) @_ZSt4cerr, ptr noundef %12)
  br label %14

14:                                               ; preds = %9, %2
  ret ptr %5
}

; Function Attrs: mustprogress uwtable
define linkonce_odr noundef nonnull align 8 dereferenceable(13) ptr @_ZN5arrow4util7CerrLoglsIiEERS1_RKT_(ptr noundef nonnull align 8 dereferenceable(13) %0, ptr noundef nonnull align 4 dereferenceable(4) %1) #5 comdat align 2 {
  %3 = alloca ptr, align 8
  %4 = alloca ptr, align 8
  store ptr %0, ptr %3, align 8, !tbaa !28
  store ptr %1, ptr %4, align 8, !tbaa !37
  %5 = load ptr, ptr %3, align 8
  %6 = getelementptr inbounds nuw %"class.arrow::util::CerrLog", ptr %5, i32 0, i32 1
  %7 = load i32, ptr %6, align 8, !tbaa !32
  %8 = icmp ne i32 %7, -1
  br i1 %8, label %9, label %14

9:                                                ; preds = %2
  %10 = getelementptr inbounds nuw %"class.arrow::util::CerrLog", ptr %5, i32 0, i32 2
  store i8 1, ptr %10, align 4, !tbaa !34
  %11 = load ptr, ptr %4, align 8, !tbaa !37
  %12 = load i32, ptr %11, align 4, !tbaa !19
  %13 = call noundef nonnull align 8 dereferenceable(8) ptr @_ZNSolsEi(ptr noundef nonnull align 8 dereferenceable(8) @_ZSt4cerr, i32 noundef %12)
  br label %14

14:                                               ; preds = %9, %2
  ret ptr %5
}

; Function Attrs: mustprogress uwtable
define linkonce_odr noundef nonnull align 8 dereferenceable(13) ptr @_ZN5arrow4util7CerrLoglsIA2_cEERS1_RKT_(ptr noundef nonnull align 8 dereferenceable(13) %0, ptr noundef nonnull align 1 dereferenceable(2) %1) #5 comdat align 2 {
  %3 = alloca ptr, align 8
  %4 = alloca ptr, align 8
  store ptr %0, ptr %3, align 8, !tbaa !28
  store ptr %1, ptr %4, align 8, !tbaa !17
  %5 = load ptr, ptr %3, align 8
  %6 = getelementptr inbounds nuw %"class.arrow::util::CerrLog", ptr %5, i32 0, i32 1
  %7 = load i32, ptr %6, align 8, !tbaa !32
  %8 = icmp ne i32 %7, -1
  br i1 %8, label %9, label %14

9:                                                ; preds = %2
  %10 = getelementptr inbounds nuw %"class.arrow::util::CerrLog", ptr %5, i32 0, i32 2
  store i8 1, ptr %10, align 4, !tbaa !34
  %11 = load ptr, ptr %4, align 8, !tbaa !17
  %12 = getelementptr inbounds [2 x i8], ptr %11, i64 0, i64 0
  %13 = call noundef nonnull align 8 dereferenceable(8) ptr @_ZStlsISt11char_traitsIcEERSt13basic_ostreamIcT_ES5_PKc(ptr noundef nonnull align 8 dereferenceable(8) @_ZSt4cerr, ptr noundef %12)
  br label %14

14:                                               ; preds = %9, %2
  ret ptr %5
}

; Function Attrs: mustprogress uwtable
define linkonce_odr noundef nonnull align 8 dereferenceable(13) ptr @_ZN5arrow4util7CerrLoglsIPKcEERS1_RKT_(ptr noundef nonnull align 8 dereferenceable(13) %0, ptr noundef nonnull align 8 dereferenceable(8) %1) #5 comdat align 2 {
  %3 = alloca ptr, align 8
  %4 = alloca ptr, align 8
  store ptr %0, ptr %3, align 8, !tbaa !28
  store ptr %1, ptr %4, align 8, !tbaa !35
  %5 = load ptr, ptr %3, align 8
  %6 = getelementptr inbounds nuw %"class.arrow::util::CerrLog", ptr %5, i32 0, i32 1
  %7 = load i32, ptr %6, align 8, !tbaa !32
  %8 = icmp ne i32 %7, -1
  br i1 %8, label %9, label %14

9:                                                ; preds = %2
  %10 = getelementptr inbounds nuw %"class.arrow::util::CerrLog", ptr %5, i32 0, i32 2
  store i8 1, ptr %10, align 4, !tbaa !34
  %11 = load ptr, ptr %4, align 8, !tbaa !35
  %12 = load ptr, ptr %11, align 8, !tbaa !17
  %13 = call noundef nonnull align 8 dereferenceable(8) ptr @_ZStlsISt11char_traitsIcEERSt13basic_ostreamIcT_ES5_PKc(ptr noundef nonnull align 8 dereferenceable(8) @_ZSt4cerr, ptr noundef %12)
  br label %14

14:                                               ; preds = %9, %2
  ret ptr %5
}

; Function Attrs: mustprogress nounwind uwtable
define linkonce_odr void @_ZN5arrow4util7CerrLogC2ENS0_13ArrowLogLevelE(ptr noundef nonnull align 8 dereferenceable(13) %0, i32 noundef %1) unnamed_addr #4 comdat align 2 {
  %3 = alloca ptr, align 8
  %4 = alloca i32, align 4
  store ptr %0, ptr %3, align 8, !tbaa !28
  store i32 %1, ptr %4, align 4, !tbaa !12
  %5 = load ptr, ptr %3, align 8
  store ptr getelementptr inbounds inrange(-16, 16) ({ [4 x ptr] }, ptr @_ZTVN5arrow4util7CerrLogE, i32 0, i32 0, i32 2), ptr %5, align 8, !tbaa !21
  %6 = getelementptr inbounds nuw %"class.arrow::util::CerrLog", ptr %5, i32 0, i32 1
  %7 = load i32, ptr %4, align 4, !tbaa !12
  store i32 %7, ptr %6, align 8, !tbaa !32
  %8 = getelementptr inbounds nuw %"class.arrow::util::CerrLog", ptr %5, i32 0, i32 2
  store i8 0, ptr %8, align 4, !tbaa !34
  ret void
}

; Function Attrs: inlinehint mustprogress nounwind uwtable
define linkonce_odr void @_ZN5arrow4util12ArrowLogBaseC2Ev(ptr noundef nonnull align 8 dereferenceable(8) %0) unnamed_addr #8 comdat align 2 {
  %2 = alloca ptr, align 8
  store ptr %0, ptr %2, align 8, !tbaa !30
  %3 = load ptr, ptr %2, align 8
  store ptr getelementptr inbounds inrange(-16, 32) ({ [6 x ptr] }, ptr @_ZTVN5arrow4util12ArrowLogBaseE, i32 0, i32 0, i32 2), ptr %3, align 8, !tbaa !21
  ret void
}

; Function Attrs: mustprogress uwtable
define void @_ZN5arrow4util8ArrowLogC2EPKciNS0_13ArrowLogLevelE(ptr noundef nonnull align 8 dereferenceable(17) %0, ptr noundef %1, i32 noundef %2, i32 noundef %3) unnamed_addr #5 align 2 personality ptr @__gxx_personality_v0 {
  %5 = alloca ptr, align 8
  %6 = alloca ptr, align 8
  %7 = alloca i32, align 4
  %8 = alloca i32, align 4
  %9 = alloca ptr, align 8
  %10 = alloca ptr, align 8
  %11 = alloca i32, align 4
  store ptr %0, ptr %5, align 8, !tbaa !15
  store ptr %1, ptr %6, align 8, !tbaa !17
  store i32 %2, ptr %7, align 4, !tbaa !19
  store i32 %3, ptr %8, align 4, !tbaa !12
  %12 = load ptr, ptr %5, align 8
  call void @_ZN5arrow4util12ArrowLogBaseC2Ev(ptr noundef nonnull align 8 dereferenceable(8) %12) #3
  store ptr getelementptr inbounds inrange(-16, 32) ({ [6 x ptr] }, ptr @_ZTVN5arrow4util8ArrowLogE, i32 0, i32 0, i32 2), ptr %12, align 8, !tbaa !21
  %13 = getelementptr inbounds nuw %"class.arrow::util::ArrowLog", ptr %12, i32 0, i32 1
  store ptr null, ptr %13, align 8, !tbaa !23
  %14 = getelementptr inbounds nuw %"class.arrow::util::ArrowLog", ptr %12, i32 0, i32 2
  %15 = load i32, ptr %8, align 4, !tbaa !12
  %16 = load i32, ptr @_ZN5arrow4util8ArrowLog19severity_threshold_E, align 4, !tbaa !12
  %17 = icmp sge i32 %15, %16
  %18 = zext i1 %17 to i8
  store i8 %18, ptr %14, align 8, !tbaa !27
  call void @llvm.lifetime.start.p0(i64 8, ptr %9) #3
  %19 = invoke noalias noundef nonnull ptr @_Znwm(i64 noundef 16) #18
          to label %20 unwind label %34

20:                                               ; preds = %4
  %21 = load i32, ptr %8, align 4, !tbaa !12
  invoke void @_ZN5arrow4util7CerrLogC2ENS0_13ArrowLogLevelE(ptr noundef nonnull align 8 dereferenceable(13) %19, i32 noundef %21)
          to label %22 unwind label %38

22:                                               ; preds = %20
  store ptr %19, ptr %9, align 8, !tbaa !28
  %23 = load ptr, ptr %9, align 8, !tbaa !28
  %24 = invoke noundef nonnull align 8 dereferenceable(13) ptr @_ZN5arrow4util7CerrLoglsIPKcEERS1_RKT_(ptr noundef nonnull align 8 dereferenceable(13) %23, ptr noundef nonnull align 8 dereferenceable(8) %6)
          to label %25 unwind label %34

25:                                               ; preds = %22
  %26 = invoke noundef nonnull align 8 dereferenceable(13) ptr @_ZN5arrow4util7CerrLoglsIA2_cEERS1_RKT_(ptr noundef nonnull align 8 dereferenceable(13) %24, ptr noundef nonnull align 1 dereferenceable(2) @.str)
          to label %27 unwind label %34

27:                                               ; preds = %25
  %28 = invoke noundef nonnull align 8 dereferenceable(13) ptr @_ZN5arrow4util7CerrLoglsIiEERS1_RKT_(ptr noundef nonnull align 8 dereferenceable(13) %26, ptr noundef nonnull align 4 dereferenceable(4) %7)
          to label %29 unwind label %34

29:                                               ; preds = %27
  %30 = invoke noundef nonnull align 8 dereferenceable(13) ptr @_ZN5arrow4util7CerrLoglsIA3_cEERS1_RKT_(ptr noundef nonnull align 8 dereferenceable(13) %28, ptr noundef nonnull align 1 dereferenceable(3) @.str.2)
          to label %31 unwind label %34

31:                                               ; preds = %29
  %32 = load ptr, ptr %9, align 8, !tbaa !28
  %33 = getelementptr inbounds nuw %"class.arrow::util::ArrowLog", ptr %12, i32 0, i32 1
  store ptr %32, ptr %33, align 8, !tbaa !23
  call void @llvm.lifetime.end.p0(i64 8, ptr %9) #3
  ret void

34:                                               ; preds = %29, %27, %25, %22, %4
  %35 = landingpad { ptr, i32 }
          cleanup
  %36 = extractvalue { ptr, i32 } %35, 0
  store ptr %36, ptr %10, align 8
  %37 = extractvalue { ptr, i32 } %35, 1
  store i32 %37, ptr %11, align 4
  br label %42

38:                                               ; preds = %20
  %39 = landingpad { ptr, i32 }
          cleanup
  %40 = extractvalue { ptr, i32 } %39, 0
  store ptr %40, ptr %10, align 8
  %41 = extractvalue { ptr, i32 } %39, 1
  store i32 %41, ptr %11, align 4
  call void @_ZdlPvm(ptr noundef %19, i64 noundef 16) #19
  br label %42

42:                                               ; preds = %38, %34
  call void @llvm.lifetime.end.p0(i64 8, ptr %9) #3
  call void @_ZN5arrow4util12ArrowLogBaseD2Ev(ptr noundef nonnull align 8 dereferenceable(8) %12) #3
  br label %43

43:                                               ; preds = %42
  %44 = load ptr, ptr %10, align 8
  %45 = load i32, ptr %11, align 4
  %46 = insertvalue { ptr, i32 } poison, ptr %44, 0
  %47 = insertvalue { ptr, i32 } %46, i32 %45, 1
  resume { ptr, i32 } %47
}