; Function Attrs: mustprogress uwtable
define void @_ZN5arrow4util8ArrowLogC2EPKciNS0_13ArrowLogLevelE(ptr noundef nonnull writeonly align 8 captures(none) dereferenceable(17) initializes((0, 17)) %0, ptr noundef %1, i32 noundef %2, i32 noundef %3) unnamed_addr #4 align 2 personality ptr @__gxx_personality_v0 {
  store ptr getelementptr inbounds nuw inrange(-16, 32) (i8, ptr @_ZTVN5arrow4util8ArrowLogE, i64 16), ptr %0, align 8, !tbaa !20
  %5 = getelementptr inbounds nuw i8, ptr %0, i64 8
  store ptr null, ptr %5, align 8, !tbaa !22
  %6 = getelementptr inbounds nuw i8, ptr %0, i64 16
  %7 = load i32, ptr @_ZN5arrow4util8ArrowLog19severity_threshold_E, align 4, !tbaa !15
  %8 = icmp sge i32 %3, %7
  %9 = zext i1 %8 to i8
  store i8 %9, ptr %6, align 8, !tbaa !26
  %10 = tail call noalias noundef nonnull dereferenceable(16) ptr @_Znwm(i64 noundef 16) #22
  store ptr getelementptr inbounds nuw inrange(-16, 16) (i8, ptr @_ZTVN5arrow4util7CerrLogE, i64 16), ptr %10, align 8, !tbaa !20
  %11 = getelementptr inbounds nuw i8, ptr %10, i64 8
  store i32 %3, ptr %11, align 8, !tbaa !27
  %12 = getelementptr inbounds nuw i8, ptr %10, i64 12
  store i8 0, ptr %12, align 4, !tbaa !29
  %.not.i = icmp eq i32 %3, -1
  br i1 %.not.i, label %_ZN5arrow4util7CerrLoglsIA3_cEERS1_RKT_.exit, label %13

13:                                               ; preds = %4
  store i8 1, ptr %12, align 4, !tbaa !29
  %.not.i.i = icmp eq ptr %1, null
  br i1 %.not.i.i, label %14, label %22

14:                                               ; preds = %13
  %15 = load ptr, ptr @_ZSt4cerr, align 8, !tbaa !20
  %16 = getelementptr i8, ptr %15, i64 -24
  %17 = load i64, ptr %16, align 8
  %18 = getelementptr inbounds i8, ptr @_ZSt4cerr, i64 %17
  %19 = getelementptr inbounds nuw i8, ptr %18, i64 32
  %20 = load i32, ptr %19, align 8, !tbaa !30
  %21 = or i32 %20, 1
  tail call void @_ZNSt9basic_iosIcSt11char_traitsIcEE5clearESt12_Ios_Iostate(ptr noundef nonnull align 8 dereferenceable(264) %18, i32 noundef %21)
  br label %25

22:                                               ; preds = %13
  %23 = tail call noundef i64 @strlen(ptr noundef nonnull dereferenceable(1) %1) #21
  %24 = tail call noundef nonnull align 8 dereferenceable(8) ptr @_ZSt16__ostream_insertIcSt11char_traitsIcEERSt13basic_ostreamIT_T0_ES6_PKS3_l(ptr noundef nonnull align 8 dereferenceable(8) @_ZSt4cerr, ptr noundef nonnull %1, i64 noundef %23)
  br label %25

25:                                               ; preds = %22, %14
  store i8 1, ptr %12, align 4, !tbaa !29
  %26 = tail call noundef nonnull align 8 dereferenceable(8) ptr @_ZSt16__ostream_insertIcSt11char_traitsIcEERSt13basic_ostreamIT_T0_ES6_PKS3_l(ptr noundef nonnull align 8 dereferenceable(8) @_ZSt4cerr, ptr noundef nonnull @.str, i64 noundef 1)
  store i8 1, ptr %12, align 4, !tbaa !29
  %27 = tail call noundef nonnull align 8 dereferenceable(8) ptr @_ZNSolsEi(ptr noundef nonnull align 8 dereferenceable(8) @_ZSt4cerr, i32 noundef %2)
  store i8 1, ptr %12, align 4, !tbaa !29
  %28 = tail call noundef nonnull align 8 dereferenceable(8) ptr @_ZSt16__ostream_insertIcSt11char_traitsIcEERSt13basic_ostreamIT_T0_ES6_PKS3_l(ptr noundef nonnull align 8 dereferenceable(8) @_ZSt4cerr, ptr noundef nonnull @.str.2, i64 noundef 2)
  br label %_ZN5arrow4util7CerrLoglsIA3_cEERS1_RKT_.exit

_ZN5arrow4util7CerrLoglsIA3_cEERS1_RKT_.exit:     ; preds = %25, %4
  store ptr %10, ptr %5, align 8, !tbaa !22
  ret void
}